target datalayout = "e-m:e-p270:32:32-p271:32:32-p272:64:64-i64:64-i128:128-f80:128-n8:16:32:64-S128"
target triple = "x86_64-pc-linux-gnu"

%struct.object_id = type { [32 x i8], i32 }
%struct.checkout = type { ptr, ptr, i32, ptr, ptr, %struct.checkout_metadata, i8 }
%struct.checkout_metadata = type { ptr, %struct.object_id, %struct.object_id }
%struct.delayed_checkout = type { i32, %struct.string_list, %struct.string_list }
%struct.string_list = type { ptr, i64, i64, i8, ptr }

; Function Attrs: nounwind uwtable
define dso_local void @enable_delayed_checkout(ptr noundef %0) #0 {
  %2 = alloca ptr, align 8
  store ptr %0, ptr %2, align 8, !tbaa !18
  %3 = load ptr, ptr %2, align 8, !tbaa !18
  %4 = getelementptr inbounds nuw %struct.checkout, ptr %3, i32 0, i32 4
  %5 = load ptr, ptr %4, align 8, !tbaa !29
  %6 = icmp ne ptr %5, null
  br i1 %6, label %23, label %7

7:                                                ; preds = %1
  %8 = call ptr @xmalloc(i64 noundef 88)
  %9 = load ptr, ptr %2, align 8, !tbaa !18
  %10 = getelementptr inbounds nuw %struct.checkout, ptr %9, i32 0, i32 4
  store ptr %8, ptr %10, align 8, !tbaa !29
  %11 = load ptr, ptr %2, align 8, !tbaa !18
  %12 = getelementptr inbounds nuw %struct.checkout, ptr %11, i32 0, i32 4
  %13 = load ptr, ptr %12, align 8, !tbaa !29
  %14 = getelementptr inbounds nuw %struct.delayed_checkout, ptr %13, i32 0, i32 0
  store i32 1, ptr %14, align 8, !tbaa !30
  %15 = load ptr, ptr %2, align 8, !tbaa !18
  %16 = getelementptr inbounds nuw %struct.checkout, ptr %15, i32 0, i32 4
  %17 = load ptr, ptr %16, align 8, !tbaa !29
  %18 = getelementptr inbounds nuw %struct.delayed_checkout, ptr %17, i32 0, i32 1
  call void @string_list_init_nodup(ptr noundef %18)
  %19 = load ptr, ptr %2, align 8, !tbaa !18
  %20 = getelementptr inbounds nuw %struct.checkout, ptr %19, i32 0, i32 4
  %21 = load ptr, ptr %20, align 8, !tbaa !29
  %22 = getelementptr inbounds nuw %struct.delayed_checkout, ptr %21, i32 0, i32 2
  call void @string_list_init_nodup(ptr noundef %22)
  br label %23

23:                                               ; preds = %7, %1
  ret void
}