; Function Attrs: nounwind uwtable
define dso_local void @enable_delayed_checkout(ptr noundef captures(none) %0) local_unnamed_addr #0 {
  %2 = getelementptr inbounds nuw i8, ptr %0, i64 32
  %3 = load ptr, ptr %2, align 8, !tbaa !20
  %.not = icmp eq ptr %3, null
  br i1 %.not, label %4, label %9

4:                                                ; preds = %1
  %5 = tail call ptr @xmalloc(i64 noundef 88) #16
  store ptr %5, ptr %2, align 8, !tbaa !20
  store i32 1, ptr %5, align 8, !tbaa !21
  %6 = getelementptr inbounds nuw i8, ptr %5, i64 8
  tail call void @string_list_init_nodup(ptr noundef nonnull %6) #16
  %7 = load ptr, ptr %2, align 8, !tbaa !20
  %8 = getelementptr inbounds nuw i8, ptr %7, i64 48
  tail call void @string_list_init_nodup(ptr noundef nonnull %8) #16
  br label %9

9:                                                ; preds = %4, %1
  ret void
}